; Function Attrs: nofree norecurse nosync nounwind memory(argmem: readwrite) uwtable
define internal void @diag_downleft_16x16_c(ptr noundef writeonly captures(none) %0, i64 noundef %1, ptr readnone captures(none) %2, ptr noundef readonly captures(none) %3) #2 {
  %5 = alloca [15 x i16], align 16
  call void @llvm.lifetime.start.p0(i64 30, ptr nonnull %5) #12
  %.pre = load i16, ptr %3, align 2, !tbaa !9
  %invariant.gep = getelementptr inbounds nuw i8, ptr %3, i64 4
  br label %6

6:                                                ; preds = %4, %6
  %7 = phi i16 [ %.pre, %4 ], [ %10, %6 ]
  %indvars.iv = phi i64 [ 0, %4 ], [ %indvars.iv.next, %6 ]
  %8 = zext i16 %7 to i32
  %indvars.iv.next = add nuw nsw i64 %indvars.iv, 1
  %9 = getelementptr inbounds nuw i16, ptr %3, i64 %indvars.iv.next
  %10 = load i16, ptr %9, align 2, !tbaa !9
  %11 = zext i16 %10 to i32
  %12 = shl nuw nsw i32 %11, 1
  %gep = getelementptr inbounds nuw i16, ptr %invariant.gep, i64 %indvars.iv
  %13 = load i16, ptr %gep, align 2, !tbaa !9
  %14 = zext i16 %13 to i32
  %15 = add nuw nsw i32 %8, 2
  %16 = add nuw nsw i32 %15, %12
  %17 = add nuw nsw i32 %16, %14
  %18 = lshr i32 %17, 2
  %19 = trunc nuw i32 %18 to i16
  %20 = getelementptr inbounds nuw [15 x i16], ptr %5, i64 0, i64 %indvars.iv
  store i16 %19, ptr %20, align 2, !tbaa !9
  %exitcond.not = icmp eq i64 %indvars.iv.next, 14
  br i1 %exitcond.not, label %21, label %6, !llvm.loop !40

21:                                               ; preds = %6
  %22 = lshr i64 %1, 1
  %23 = getelementptr inbounds nuw i8, ptr %3, i64 28
  %24 = load i16, ptr %23, align 2, !tbaa !9
  %25 = zext i16 %24 to i32
  %26 = getelementptr inbounds nuw i8, ptr %3, i64 30
  %27 = load i16, ptr %26, align 2, !tbaa !9
  %28 = zext i16 %27 to i32
  %29 = mul nuw nsw i32 %28, 3
  %30 = add nuw nsw i32 %25, 2
  %31 = add nuw nsw i32 %30, %29
  %32 = lshr i32 %31, 2
  %33 = trunc nuw i32 %32 to i16
  %34 = getelementptr inbounds nuw i8, ptr %5, i64 28
  store i16 %33, ptr %34, align 4, !tbaa !9
  br label %35

35:                                               ; preds = %21, %memset_bpc.exit
  %indvars.iv30 = phi i64 [ 0, %21 ], [ %indvars.iv.next31, %memset_bpc.exit ]
  %36 = mul nuw nsw i64 %22, %indvars.iv30
  %37 = getelementptr inbounds nuw i16, ptr %0, i64 %36
  %38 = getelementptr inbounds nuw i16, ptr %5, i64 %indvars.iv30
  %39 = shl nuw nsw i64 %indvars.iv30, 1
  %40 = sub nuw nsw i64 30, %39
  call void @llvm.memcpy.p0.p0.i64(ptr align 2 %37, ptr nonnull align 2 %38, i64 %40, i1 false)
  %41 = getelementptr inbounds nuw i8, ptr %37, i64 30
  %42 = sub nsw i64 0, %indvars.iv30
  %43 = getelementptr inbounds i16, ptr %41, i64 %42
  %44 = load i16, ptr %26, align 2, !tbaa !9
  %indvars.iv.next31 = add nuw nsw i64 %indvars.iv30, 1
  br label %45

45:                                               ; preds = %45, %35
  %indvars.iv.i = phi i64 [ 0, %35 ], [ %indvars.iv.next.i, %45 ]
  %46 = getelementptr inbounds nuw i16, ptr %43, i64 %indvars.iv.i
  store i16 %44, ptr %46, align 2, !tbaa !9
  %indvars.iv.next.i = add nuw nsw i64 %indvars.iv.i, 1
  %exitcond.not.i = icmp eq i64 %indvars.iv.i, %indvars.iv30
  br i1 %exitcond.not.i, label %memset_bpc.exit, label %45, !llvm.loop !17

memset_bpc.exit:                                  ; preds = %45
  %exitcond33.not = icmp eq i64 %indvars.iv.next31, 16
  br i1 %exitcond33.not, label %47, label %35, !llvm.loop !41

47:                                               ; preds = %memset_bpc.exit
  call void @llvm.lifetime.end.p0(i64 30, ptr nonnull %5) #12
  ret void
}